; Function Attrs: mustprogress nounwind uwtable
define hidden void @_ZN17MemoryFileTracker8Instance20print_all_reports_onEP12outputStreamm(ptr noundef nonnull %0, i64 noundef %1) local_unnamed_addr #0 align 2 {
  %3 = load ptr, ptr @_ZN17MemoryFileTracker8Instance8_trackerE, align 8
  %4 = getelementptr inbounds i8, ptr %3, i64 96
  tail call void @_ZN12outputStream2crEv(ptr noundef nonnull align 8 dereferenceable(56) %0) #10
  tail call void (ptr, ptr, ...) @_ZN12outputStream8print_crEPKcz(ptr noundef nonnull align 8 dereferenceable(56) %0, ptr noundef nonnull @.str.4) #10
  tail call void @_ZN12outputStream2crEv(ptr noundef nonnull align 8 dereferenceable(56) %0) #10
  %5 = load i32, ptr %4, align 4
  %6 = icmp sgt i32 %5, 0
  br i1 %6, label %.lr.ph, label %._crit_edge

.lr.ph:                                           ; preds = %2
  %7 = getelementptr inbounds i8, ptr %3, i64 104
  br label %8

8:                                                ; preds = %.lr.ph, %8
  %indvars.iv = phi i64 [ 0, %.lr.ph ], [ %indvars.iv.next, %8 ]
  %9 = load ptr, ptr %7, align 8
  %10 = getelementptr inbounds ptr, ptr %9, i64 %indvars.iv
  %11 = load ptr, ptr %10, align 8
  %12 = load ptr, ptr @_ZN17MemoryFileTracker8Instance8_trackerE, align 8
  tail call void @_ZN17MemoryFileTracker15print_report_onEPKNS_10MemoryFileEP12outputStreamm(ptr noundef nonnull align 8 dereferenceable(112) %12, ptr noundef readonly %11, ptr noundef %0, i64 noundef %1)
  %indvars.iv.next = add nuw nsw i64 %indvars.iv, 1
  %13 = load i32, ptr %4, align 4
  %14 = sext i32 %13 to i64
  %15 = icmp slt i64 %indvars.iv.next, %14
  br i1 %15, label %8, label %._crit_edge, !llvm.loop !14

._crit_edge:                                      ; preds = %8, %2
  ret void
}